target datalayout = "e-m:e-p270:32:32-p271:32:32-p272:64:64-i64:64-i128:128-f80:128-n8:16:32:64-S128"
target triple = "x86_64-pc-linux-gnu"

%struct.AVFilterContext = type { ptr, ptr, ptr, ptr, ptr, i32, ptr, ptr, i32, ptr, ptr, i32, i32, ptr, ptr, ptr, ptr, i32, ptr, i32, i32 }
%struct.ThumbContext = type { ptr, i32, i32, i32, ptr, %struct.AVRational, i32, ptr, [4 x i32], [4 x i32] }
%struct.AVRational = type { i32, i32 }
%struct.thumb_frame = type { ptr, [768 x i32] }
%struct.AVFilterLink = type { ptr, ptr, ptr, ptr, i32, i32, i32, i32, %struct.AVRational, i32, i32, i32, %struct.AVChannelLayout, %struct.AVRational, ptr, i32, %struct.AVFilterFormatsConfig, %struct.AVFilterFormatsConfig }
%struct.AVChannelLayout = type { i32, i32, %union.anon.1, ptr }
%union.anon.1 = type { i64 }
%struct.AVFilterFormatsConfig = type { ptr, ptr, ptr, ptr, ptr }
%struct.AVFrame = type { [8 x ptr], [8 x i32], ptr, i32, i32, i32, i32, i32, %struct.AVRational, i64, i64, %struct.AVRational, i32, ptr, i32, i32, [8 x ptr], ptr, i32, ptr, i32, i32, i32, i32, i32, i32, i32, i64, ptr, i32, ptr, ptr, i64, i64, i64, i64, ptr, %struct.AVChannelLayout, i64 }

; Function Attrs: nounwind uwtable
define internal i32 @filter_frame(ptr noundef %0, ptr noundef %1) #1 {
  %3 = alloca i32, align 4
  %4 = alloca ptr, align 8
  %5 = alloca ptr, align 8
  %6 = alloca ptr, align 8
  %7 = alloca ptr, align 8
  %8 = alloca ptr, align 8
  %9 = alloca ptr, align 8
  %10 = alloca i32, align 4
  %11 = alloca i32, align 4
  %12 = alloca ptr, align 8
  %13 = alloca i32, align 4
  store ptr %0, ptr %4, align 8, !tbaa !36
  store ptr %1, ptr %5, align 8, !tbaa !38
  call void @llvm.lifetime.start.p0(i64 8, ptr %6) #10
  %14 = load ptr, ptr %4, align 8, !tbaa !36
  %15 = getelementptr inbounds nuw %struct.AVFilterLink, ptr %14, i32 0, i32 2
  %16 = load ptr, ptr %15, align 8, !tbaa !39
  store ptr %16, ptr %6, align 8, !tbaa !4
  call void @llvm.lifetime.start.p0(i64 8, ptr %7) #10
  %17 = load ptr, ptr %6, align 8, !tbaa !4
  %18 = getelementptr inbounds nuw %struct.AVFilterContext, ptr %17, i32 0, i32 9
  %19 = load ptr, ptr %18, align 8, !tbaa !9
  store ptr %19, ptr %7, align 8, !tbaa !22
  call void @llvm.lifetime.start.p0(i64 8, ptr %8) #10
  %20 = load ptr, ptr %6, align 8, !tbaa !4
  %21 = getelementptr inbounds nuw %struct.AVFilterContext, ptr %20, i32 0, i32 7
  %22 = load ptr, ptr %21, align 8, !tbaa !46
  %23 = getelementptr inbounds ptr, ptr %22, i64 0
  %24 = load ptr, ptr %23, align 8, !tbaa !36
  store ptr %24, ptr %8, align 8, !tbaa !36
  call void @llvm.lifetime.start.p0(i64 8, ptr %9) #10
  %25 = load ptr, ptr %7, align 8, !tbaa !22
  %26 = getelementptr inbounds nuw %struct.ThumbContext, ptr %25, i32 0, i32 4
  %27 = load ptr, ptr %26, align 8, !tbaa !29
  %28 = load ptr, ptr %7, align 8, !tbaa !22
  %29 = getelementptr inbounds nuw %struct.ThumbContext, ptr %28, i32 0, i32 1
  %30 = load i32, ptr %29, align 8, !tbaa !47
  %31 = sext i32 %30 to i64
  %32 = getelementptr inbounds %struct.thumb_frame, ptr %27, i64 %31
  %33 = getelementptr inbounds nuw %struct.thumb_frame, ptr %32, i32 0, i32 1
  %34 = getelementptr inbounds [768 x i32], ptr %33, i64 0, i64 0
  store ptr %34, ptr %9, align 8, !tbaa !48
  %35 = load ptr, ptr %5, align 8, !tbaa !38
  %36 = load ptr, ptr %7, align 8, !tbaa !22
  %37 = getelementptr inbounds nuw %struct.ThumbContext, ptr %36, i32 0, i32 4
  %38 = load ptr, ptr %37, align 8, !tbaa !29
  %39 = load ptr, ptr %7, align 8, !tbaa !22
  %40 = getelementptr inbounds nuw %struct.ThumbContext, ptr %39, i32 0, i32 1
  %41 = load i32, ptr %40, align 8, !tbaa !47
  %42 = sext i32 %41 to i64
  %43 = getelementptr inbounds %struct.thumb_frame, ptr %38, i64 %42
  %44 = getelementptr inbounds nuw %struct.thumb_frame, ptr %43, i32 0, i32 0
  store ptr %35, ptr %44, align 8, !tbaa !31
  %45 = load ptr, ptr %6, align 8, !tbaa !4
  %46 = load ptr, ptr %5, align 8, !tbaa !38
  %47 = load ptr, ptr %5, align 8, !tbaa !38
  %48 = getelementptr inbounds nuw %struct.AVFrame, ptr %47, i32 0, i32 4
  %49 = load i32, ptr %48, align 4, !tbaa !49
  %50 = load ptr, ptr %7, align 8, !tbaa !22
  %51 = getelementptr inbounds nuw %struct.ThumbContext, ptr %50, i32 0, i32 6
  %52 = load i32, ptr %51, align 8, !tbaa !55
  %53 = icmp sgt i32 %49, %52
  br i1 %53, label %54, label %58

54:                                               ; preds = %2
  %55 = load ptr, ptr %7, align 8, !tbaa !22
  %56 = getelementptr inbounds nuw %struct.ThumbContext, ptr %55, i32 0, i32 6
  %57 = load i32, ptr %56, align 8, !tbaa !55
  br label %62

58:                                               ; preds = %2
  %59 = load ptr, ptr %5, align 8, !tbaa !38
  %60 = getelementptr inbounds nuw %struct.AVFrame, ptr %59, i32 0, i32 4
  %61 = load i32, ptr %60, align 4, !tbaa !49
  br label %62

62:                                               ; preds = %58, %54
  %63 = phi i32 [ %57, %54 ], [ %61, %58 ]
  %64 = call i32 @ff_filter_execute(ptr noundef %45, ptr noundef @do_slice, ptr noundef %46, ptr noundef null, i32 noundef %63)
  call void @llvm.lifetime.start.p0(i64 4, ptr %10) #10
  store i32 0, ptr %10, align 4, !tbaa !30
  br label %65

65:                                               ; preds = %114, %62
  %66 = load i32, ptr %10, align 4, !tbaa !30
  %67 = load ptr, ptr %5, align 8, !tbaa !38
  %68 = getelementptr inbounds nuw %struct.AVFrame, ptr %67, i32 0, i32 4
  %69 = load i32, ptr %68, align 4, !tbaa !49
  %70 = load ptr, ptr %7, align 8, !tbaa !22
  %71 = getelementptr inbounds nuw %struct.ThumbContext, ptr %70, i32 0, i32 6
  %72 = load i32, ptr %71, align 8, !tbaa !55
  %73 = icmp sgt i32 %69, %72
  br i1 %73, label %74, label %78

74:                                               ; preds = %65
  %75 = load ptr, ptr %7, align 8, !tbaa !22
  %76 = getelementptr inbounds nuw %struct.ThumbContext, ptr %75, i32 0, i32 6
  %77 = load i32, ptr %76, align 8, !tbaa !55
  br label %82

78:                                               ; preds = %65
  %79 = load ptr, ptr %5, align 8, !tbaa !38
  %80 = getelementptr inbounds nuw %struct.AVFrame, ptr %79, i32 0, i32 4
  %81 = load i32, ptr %80, align 4, !tbaa !49
  br label %82

82:                                               ; preds = %78, %74
  %83 = phi i32 [ %77, %74 ], [ %81, %78 ]
  %84 = icmp slt i32 %66, %83
  br i1 %84, label %86, label %85

85:                                               ; preds = %82
  store i32 2, ptr %11, align 4
  call void @llvm.lifetime.end.p0(i64 4, ptr %10) #10
  br label %117

86:                                               ; preds = %82
  call void @llvm.lifetime.start.p0(i64 8, ptr %12) #10
  %87 = load ptr, ptr %7, align 8, !tbaa !22
  %88 = getelementptr inbounds nuw %struct.ThumbContext, ptr %87, i32 0, i32 7
  %89 = load ptr, ptr %88, align 8, !tbaa !56
  %90 = load i32, ptr %10, align 4, !tbaa !30
  %91 = mul nsw i32 768, %90
  %92 = sext i32 %91 to i64
  %93 = getelementptr inbounds i32, ptr %89, i64 %92
  store ptr %93, ptr %12, align 8, !tbaa !48
  call void @llvm.lifetime.start.p0(i64 4, ptr %13) #10
  store i32 0, ptr %13, align 4, !tbaa !30
  br label %94

94:                                               ; preds = %110, %86
  %95 = load i32, ptr %13, align 4, !tbaa !30
  %96 = icmp slt i32 %95, 768
  br i1 %96, label %98, label %97

97:                                               ; preds = %94
  store i32 5, ptr %11, align 4
  call void @llvm.lifetime.end.p0(i64 4, ptr %13) #10
  br label %113

98:                                               ; preds = %94
  %99 = load ptr, ptr %12, align 8, !tbaa !48
  %100 = load i32, ptr %13, align 4, !tbaa !30
  %101 = sext i32 %100 to i64
  %102 = getelementptr inbounds i32, ptr %99, i64 %101
  %103 = load i32, ptr %102, align 4, !tbaa !30
  %104 = load ptr, ptr %9, align 8, !tbaa !48
  %105 = load i32, ptr %13, align 4, !tbaa !30
  %106 = sext i32 %105 to i64
  %107 = getelementptr inbounds i32, ptr %104, i64 %106
  %108 = load i32, ptr %107, align 4, !tbaa !30
  %109 = add nsw i32 %108, %103
  store i32 %109, ptr %107, align 4, !tbaa !30
  br label %110

110:                                              ; preds = %98
  %111 = load i32, ptr %13, align 4, !tbaa !30
  %112 = add nsw i32 %111, 1
  store i32 %112, ptr %13, align 4, !tbaa !30
  br label %94, !llvm.loop !57

113:                                              ; preds = %97
  call void @llvm.lifetime.end.p0(i64 8, ptr %12) #10
  br label %114

114:                                              ; preds = %113
  %115 = load i32, ptr %10, align 4, !tbaa !30
  %116 = add nsw i32 %115, 1
  store i32 %116, ptr %10, align 4, !tbaa !30
  br label %65, !llvm.loop !58

117:                                              ; preds = %85
  %118 = load ptr, ptr %7, align 8, !tbaa !22
  %119 = getelementptr inbounds nuw %struct.ThumbContext, ptr %118, i32 0, i32 1
  %120 = load i32, ptr %119, align 8, !tbaa !47
  %121 = add nsw i32 %120, 1
  store i32 %121, ptr %119, align 8, !tbaa !47
  %122 = load ptr, ptr %7, align 8, !tbaa !22
  %123 = getelementptr inbounds nuw %struct.ThumbContext, ptr %122, i32 0, i32 1
  %124 = load i32, ptr %123, align 8, !tbaa !47
  %125 = load ptr, ptr %7, align 8, !tbaa !22
  %126 = getelementptr inbounds nuw %struct.ThumbContext, ptr %125, i32 0, i32 3
  %127 = load i32, ptr %126, align 8, !tbaa !24
  %128 = icmp slt i32 %124, %127
  br i1 %128, label %129, label %130

129:                                              ; preds = %117
  store i32 0, ptr %3, align 4
  store i32 1, ptr %11, align 4
  br label %135

130:                                              ; preds = %117
  %131 = load ptr, ptr %8, align 8, !tbaa !36
  %132 = load ptr, ptr %6, align 8, !tbaa !4
  %133 = call ptr @get_best_frame(ptr noundef %132)
  %134 = call i32 @ff_filter_frame(ptr noundef %131, ptr noundef %133)
  store i32 %134, ptr %3, align 4
  store i32 1, ptr %11, align 4
  br label %135

135:                                              ; preds = %130, %129
  call void @llvm.lifetime.end.p0(i64 8, ptr %9) #10
  call void @llvm.lifetime.end.p0(i64 8, ptr %8) #10
  call void @llvm.lifetime.end.p0(i64 8, ptr %7) #10
  call void @llvm.lifetime.end.p0(i64 8, ptr %6) #10
  %136 = load i32, ptr %3, align 4
  ret i32 %136
}