; Function Attrs: nounwind uwtable
define internal i32 @filter_frame(ptr noundef readonly captures(none) %0, ptr noundef %1) #1 {
  %3 = getelementptr inbounds nuw i8, ptr %0, i64 16
  %4 = load ptr, ptr %3, align 8, !tbaa !31
  %5 = getelementptr inbounds nuw i8, ptr %4, i64 72
  %6 = load ptr, ptr %5, align 8, !tbaa !4
  %7 = getelementptr inbounds nuw i8, ptr %4, i64 56
  %8 = load ptr, ptr %7, align 8, !tbaa !39
  %9 = load ptr, ptr %8, align 8, !tbaa !40
  %10 = getelementptr inbounds nuw i8, ptr %6, i64 24
  %11 = load ptr, ptr %10, align 8, !tbaa !25
  %12 = getelementptr inbounds nuw i8, ptr %6, i64 8
  %13 = load i32, ptr %12, align 8, !tbaa !42
  %14 = sext i32 %13 to i64
  %15 = getelementptr inbounds %struct.thumb_frame, ptr %11, i64 %14
  %16 = getelementptr inbounds nuw i8, ptr %15, i64 8
  store ptr %1, ptr %15, align 8, !tbaa !26
  %17 = getelementptr inbounds nuw i8, ptr %1, i64 108
  %18 = load i32, ptr %17, align 4, !tbaa !43
  %19 = getelementptr inbounds nuw i8, ptr %6, i64 40
  %20 = load i32, ptr %19, align 8, !tbaa !49
  %. = tail call i32 @llvm.smin.i32(i32 %18, i32 %20)
  %21 = tail call i32 @ff_filter_execute(ptr noundef %4, ptr noundef nonnull @do_slice, ptr noundef %1, ptr noundef null, i32 noundef %.) #9
  %22 = load i32, ptr %17, align 4, !tbaa !43
  %23 = load i32, ptr %19, align 8, !tbaa !49
  %.3941 = tail call i32 @llvm.smin.i32(i32 %22, i32 %23)
  %24 = icmp sgt i32 %.3941, 0
  br i1 %24, label %.lr.ph, label %._crit_edge

.lr.ph:                                           ; preds = %2
  %25 = getelementptr inbounds nuw i8, ptr %6, i64 48
  %26 = load ptr, ptr %25, align 8, !tbaa !50
  br label %32

._crit_edge:                                      ; preds = %34, %2
  %27 = load i32, ptr %12, align 8, !tbaa !42
  %28 = add nsw i32 %27, 1
  store i32 %28, ptr %12, align 8, !tbaa !42
  %29 = getelementptr inbounds nuw i8, ptr %6, i64 16
  %30 = load i32, ptr %29, align 8, !tbaa !20
  %31 = icmp slt i32 %28, %30
  br i1 %31, label %48, label %45

32:                                               ; preds = %.lr.ph, %34
  %indvars.iv44 = phi i64 [ 0, %.lr.ph ], [ %indvars.iv.next45, %34 ]
  %.idx = mul nuw nsw i64 %indvars.iv44, 3072
  %33 = getelementptr inbounds nuw i8, ptr %26, i64 %.idx
  br label %39

34:                                               ; preds = %39
  %indvars.iv.next45 = add nuw nsw i64 %indvars.iv44, 1
  %35 = load i32, ptr %17, align 4, !tbaa !43
  %36 = load i32, ptr %19, align 8, !tbaa !49
  %.39 = tail call i32 @llvm.smin.i32(i32 %35, i32 %36)
  %37 = sext i32 %.39 to i64
  %38 = icmp slt i64 %indvars.iv.next45, %37
  br i1 %38, label %32, label %._crit_edge, !llvm.loop !51

39:                                               ; preds = %32, %39
  %indvars.iv = phi i64 [ 0, %32 ], [ %indvars.iv.next, %39 ]
  %40 = getelementptr inbounds nuw i32, ptr %33, i64 %indvars.iv
  %41 = load i32, ptr %40, align 4, !tbaa !52
  %42 = getelementptr inbounds nuw i32, ptr %16, i64 %indvars.iv
  %43 = load i32, ptr %42, align 4, !tbaa !52
  %44 = add nsw i32 %43, %41
  store i32 %44, ptr %42, align 4, !tbaa !52
  %indvars.iv.next = add nuw nsw i64 %indvars.iv, 1
  %exitcond.not = icmp eq i64 %indvars.iv.next, 768
  br i1 %exitcond.not, label %34, label %39, !llvm.loop !53

45:                                               ; preds = %._crit_edge
  %46 = tail call fastcc ptr @get_best_frame(ptr noundef %4)
  %47 = tail call i32 @ff_filter_frame(ptr noundef %9, ptr noundef %46) #9
  br label %48

48:                                               ; preds = %._crit_edge, %45
  %.033 = phi i32 [ %47, %45 ], [ 0, %._crit_edge ]
  ret i32 %.033
}